target datalayout = "e-m:e-p270:32:32-p271:32:32-p272:64:64-i64:64-i128:128-f80:128-n8:16:32:64-S128"
target triple = "x86_64-pc-linux-gnu"

%struct.ec_group_st = type { ptr, ptr, %struct.bignum_st, %struct.bignum_st, i32, ptr, %struct.bignum_st, %struct.bignum_st, %struct.bignum_st, i32, ptr, %struct.bignum_st }
%struct.bignum_st = type { ptr, i32, i32, i32, i32 }

; Function Attrs: nounwind uwtable
define hidden i32 @ec_GFp_mont_group_copy(ptr noundef %0, ptr noundef %1) #0 {
  %3 = alloca i32, align 4
  %4 = alloca ptr, align 8
  %5 = alloca ptr, align 8
  store ptr %0, ptr %4, align 8, !tbaa !6
  store ptr %1, ptr %5, align 8, !tbaa !6
  %6 = load ptr, ptr %4, align 8, !tbaa !6
  %7 = getelementptr inbounds nuw %struct.ec_group_st, ptr %6, i32 0, i32 10
  %8 = load ptr, ptr %7, align 8, !tbaa !13
  call void @BN_MONT_CTX_free(ptr noundef %8)
  %9 = load ptr, ptr %4, align 8, !tbaa !6
  %10 = getelementptr inbounds nuw %struct.ec_group_st, ptr %9, i32 0, i32 10
  store ptr null, ptr %10, align 8, !tbaa !13
  %11 = load ptr, ptr %4, align 8, !tbaa !6
  %12 = load ptr, ptr %5, align 8, !tbaa !6
  %13 = call i32 @ec_GFp_simple_group_copy(ptr noundef %11, ptr noundef %12)
  %14 = icmp ne i32 %13, 0
  br i1 %14, label %16, label %15

15:                                               ; preds = %2
  store i32 0, ptr %3, align 4
  br label %48

16:                                               ; preds = %2
  %17 = load ptr, ptr %5, align 8, !tbaa !6
  %18 = getelementptr inbounds nuw %struct.ec_group_st, ptr %17, i32 0, i32 10
  %19 = load ptr, ptr %18, align 8, !tbaa !13
  %20 = icmp ne ptr %19, null
  br i1 %20, label %21, label %41

21:                                               ; preds = %16
  %22 = call ptr @BN_MONT_CTX_new()
  %23 = load ptr, ptr %4, align 8, !tbaa !6
  %24 = getelementptr inbounds nuw %struct.ec_group_st, ptr %23, i32 0, i32 10
  store ptr %22, ptr %24, align 8, !tbaa !13
  %25 = load ptr, ptr %4, align 8, !tbaa !6
  %26 = getelementptr inbounds nuw %struct.ec_group_st, ptr %25, i32 0, i32 10
  %27 = load ptr, ptr %26, align 8, !tbaa !13
  %28 = icmp eq ptr %27, null
  br i1 %28, label %29, label %30

29:                                               ; preds = %21
  store i32 0, ptr %3, align 4
  br label %48

30:                                               ; preds = %21
  %31 = load ptr, ptr %4, align 8, !tbaa !6
  %32 = getelementptr inbounds nuw %struct.ec_group_st, ptr %31, i32 0, i32 10
  %33 = load ptr, ptr %32, align 8, !tbaa !13
  %34 = load ptr, ptr %5, align 8, !tbaa !6
  %35 = getelementptr inbounds nuw %struct.ec_group_st, ptr %34, i32 0, i32 10
  %36 = load ptr, ptr %35, align 8, !tbaa !13
  %37 = call ptr @BN_MONT_CTX_copy(ptr noundef %33, ptr noundef %36)
  %38 = icmp ne ptr %37, null
  br i1 %38, label %40, label %39

39:                                               ; preds = %30
  br label %42

40:                                               ; preds = %30
  br label %41

41:                                               ; preds = %40, %16
  store i32 1, ptr %3, align 4
  br label %48

42:                                               ; preds = %39
  %43 = load ptr, ptr %4, align 8, !tbaa !6
  %44 = getelementptr inbounds nuw %struct.ec_group_st, ptr %43, i32 0, i32 10
  %45 = load ptr, ptr %44, align 8, !tbaa !13
  call void @BN_MONT_CTX_free(ptr noundef %45)
  %46 = load ptr, ptr %4, align 8, !tbaa !6
  %47 = getelementptr inbounds nuw %struct.ec_group_st, ptr %46, i32 0, i32 10
  store ptr null, ptr %47, align 8, !tbaa !13
  store i32 0, ptr %3, align 4
  br label %48

48:                                               ; preds = %42, %41, %29, %15
  %49 = load i32, ptr %3, align 4
  ret i32 %49
}