; Function Attrs: nounwind uwtable
define hidden range(i32 0, 2) i32 @ec_GFp_mont_group_copy(ptr noundef %0, ptr noundef %1) #0 {
  %3 = getelementptr inbounds nuw i8, ptr %0, i64 160
  %4 = load ptr, ptr %3, align 8, !tbaa !6
  tail call void @BN_MONT_CTX_free(ptr noundef %4) #3
  store ptr null, ptr %3, align 8, !tbaa !6
  %5 = tail call i32 @ec_GFp_simple_group_copy(ptr noundef %0, ptr noundef %1) #3
  %.not = icmp eq i32 %5, 0
  br i1 %.not, label %17, label %6

6:                                                ; preds = %2
  %7 = getelementptr inbounds nuw i8, ptr %1, i64 160
  %8 = load ptr, ptr %7, align 8, !tbaa !6
  %.not12 = icmp eq ptr %8, null
  br i1 %.not12, label %17, label %9

9:                                                ; preds = %6
  %10 = tail call ptr @BN_MONT_CTX_new() #3
  store ptr %10, ptr %3, align 8, !tbaa !6
  %11 = icmp eq ptr %10, null
  br i1 %11, label %17, label %12

12:                                               ; preds = %9
  %13 = load ptr, ptr %7, align 8, !tbaa !6
  %14 = tail call ptr @BN_MONT_CTX_copy(ptr noundef nonnull %10, ptr noundef %13) #3
  %.not13 = icmp eq ptr %14, null
  br i1 %.not13, label %15, label %17

15:                                               ; preds = %12
  %16 = load ptr, ptr %3, align 8, !tbaa !6
  tail call void @BN_MONT_CTX_free(ptr noundef %16) #3
  store ptr null, ptr %3, align 8, !tbaa !6
  br label %17

17:                                               ; preds = %6, %12, %9, %2, %15
  %.0 = phi i32 [ 0, %15 ], [ 0, %2 ], [ 0, %9 ], [ 1, %12 ], [ 1, %6 ]
  ret i32 %.0
}